(dp0
Vs:\u005ckatalogas\u005cBrimnes\u005cBrimnes 4 st siaura komoda\u005cBrimnes 4 st siaura komodos sonas d,k.dxf
p1
S'BRMC4/BA-DE-3-3\nPBRMC4/BA-DE-03-3'
p2
sVs:\u005ckatalogas\u005cBrimnes\u005cBrimnes bed DBL GB su stalciais\u005cBrimnes bed DBL GB su stalciais kojugalio remas centrinis.dxf
p3
S'BRMBWS/BA-DE-2-4-3'
p4
sVs:\u005ckatalogas\u005cBrusali\u005cLova160\u005cBrusali 160 Kojugalis - koja D.dxf
p5
S'BRUB/BA-MA-2-03-1'
p6
sVs:\u005ckatalogas\u005cBrimnes\u005cBrimnes 3 st komoda\u005cBrimnes 3 st komodos st remas su rankena.dxf
p7
S'BRMCW/BA-MA-10-2-6'
p8
sVs:\u005ckatalogas\u005cBrimnes\u005cBrimnes 2 duru spinta\u005cBrimnes 2 duru spinta virsus.dxf
p9
S'BRMW/BA-DE-1-6'
p10
sVs:\u005ckatalogas\u005cBrimnes\u005cBrimnes 2 duru spinta\u005cBrimnes 2 duru spinta sonas 2 kart.dxf
p11
S'2xBRMW/BA-DE-03-4\nPBRMW/BA-DE-3-4'
p12
sVs:\u005ckatalogas\u005cBrimnes\u005cBrimnes galvugalis KG GB\u005cBrimnes galvugalis KG GB sonas desine.dxf
p13
S'BRMHDB/BA-DE-03-2'
p14
sVs:\u005ckatalogas\u005cBrimnes\u005cBrimnes 4 st siaura komoda\u005cBrimnes 4 st siaura komodos fasadas.dxf
p15
S'BRMCN/BA-DE-10-3\nPBRMCN/BA-DE-11-3'
p16
sVs:\u005ckatalogas\u005cBrusali\u005cLova KG GB\u005cBrusali KG GB Kojugalio juosta.dxf
p17
S'BRUBKG/BA-MA-2-2-1'
p18
sVs:\u005ckatalogas\u005cBrimnes\u005cBrimnes bed DBL GB su stalciais\u005cBrimnes bed DBL GB su stalciais kojugalis.dxf
p19
S'BRMBWSDBL/BA-DE-2-5'
p20
sVs:\u005ckatalogas\u005cBrimnes\u005cBrimnes bed frame KG GB\u005cBrimnes bedframe KG GB kojugalio remas virsutinis.dxf
p21
S'BRMBFRKG/BA-DE-2-1-7'
p22
sVs:\u005ckatalogas\u005cBrimnes\u005cBrimnes bed KG GB su stalciais\u005cBrimnes bed KG GB su stalciais tvirtinamoji juosta.dxf
p23
S'BRMBWS/BA-DE-12-2'
p24
sVs:\u005ckatalogas\u005cBrusali\u005cKomoda 4st siaura\u005cBrusali C4N Lentyna 2.dxf
p25
S'BRUC4N/BA-DE-8-1'
p26
sVs:\u005ckatalogas\u005cBrimnes\u005cBrimnes galvugalis 180\u005cBrimnes galvugalis 180 galas desine b puse.dxf
p27
S'BRMHDB180/BA-DE-07-5'
p28
sVs:\u005ckatalogas\u005cBrimnes\u005cBrimnes 3 duru spinta\u005cBrimnes 3 duru spinta duru remas su lankstais.dxf
p29
S'BRMW/BA-MA-10-1-6'
p30
sVs:\u005ckatalogas\u005cBrimnes\u005cBrimnes bed 180 su stalciais\u005cBrimnes bed 180 su stalciais kojugalis.dxf
p31
S'BRMBWS180/BA-DE-2-5'
p32
sVs:\u005ckatalogas\u005cBrimnes\u005cBrimnes bed 160 su stalciais\u005cBrimnes bed 160 su stalciais kojugalio pertvara.dxf
p33
S'BRMBWS/BA-DE-2-4-3'
p34
sVs:\u005ckatalogas\u005cBrimnes\u005cBrimnes bed 140 su stalciais\u005cBrimnes bed 140 su stalciais galvugalis.dxf
p35
S'BRMBWS140/BA-DE-1-3'
p36
sVs:\u005ckatalogas\u005cBrimnes\u005cBrimnes 4 st komoda\u005cBrimnes 4 st komodos virsus.dxf
p37
S'BRMCW/BA-DE-1-4'
p38
sVs:\u005ckatalogas\u005cBrusali\u005cLova KG GB\u005cBrusali KG GB Kojugalis - skydas.dxf
p39
S'BRUBKG/BA-KA-2-1-1'
p40
sVs:\u005ckatalogas\u005cBrimnes\u005cBrimnes DAY BED\u005cBrimnes DAY BED sonas desine virsus.dxf
p41
S'BRMBDAY/BA-MA-03-1-5'
p42
sVs:\u005ckatalogas\u005cBrimnes\u005cBrimnes galvugalis 160\u005cBrimnes galvugalis 160 virsutinis skydas 2 kart.dxf
p43
S'2xBRMHDB160/BA-DE-1-3'
p44
sVs:\u005ckatalogas\u005cBrimnes\u005cBrimnes galvugalis DBL GB\u005cBrimnes galvugalis DBL GB remo pertvara.dxf
p45
S'BRMHDB/BA-DE-11-6'
p46
sVs:\u005ckatalogas\u005cBrimnes\u005cBrimnes 4 st siaura komoda\u005cBrimnes 4 st siaura komodos st remas desine.dxf
p47
S'BRMC/BA-MA-10-03-2'
p48
sVs:\u005ckatalogas\u005cBrusali\u005cSpintele prie lovos\u005cBrusali BDST Dugnas.dxf
p49
S'BRUBDST/BA-DE-2-1'
p50
sVs:\u005ckatalogas\u005cBrimnes\u005cBrimnes spintele prie lovos\u005cBrimnes spintele prie lovos fasadas.dxf
p51
S'BRMCN/BA-DE-10-2-3'
p52
sVs:\u005ckatalogas\u005cBrimnes\u005cBrimnes galvugalis 180\u005cBrimnes galvugalis 180 pertvara.dxf
p53
S'BRMHDB/BA-DE-6-5'
p54
sVs:\u005ckatalogas\u005cBrimnes\u005cBrimnes galvugalis 160\u005cBrimnes galvugalis 160 sonas desine.dxf
p55
S'BRMHDB/BA-DE-03-2'
p56
sVs:\u005ckatalogas\u005cBrusali\u005cSpinta\u005cBrusali W3 Durys skydas.dxf
p57
S'BRUW/BA-DE-9-1'
p58
sVs:\u005ckatalogas\u005cBrimnes\u005cBrimnes galvugalis 180\u005cBrimnes galvugalis 180 laisva lentyna.dxf
p59
S'BRMBHDB/BA-DE-4-5'
p60
sVs:\u005ckatalogas\u005cBrusali\u005cLova S2 DBL\u005cBrusali S2 DBL Kojugalis - koja Ky.dxf
p61
S'BRUB/BA-MA-2-3-1'
p62
sVs:\u005ckatalogas\u005cBrimnes\u005cBrimnes spintele prie lovos\u005cBrimnes spintele prie lovos sonai desine.dxf
p63
S'BRMBDST/BA-DE-03-2'
p64
sVs:\u005ckatalogas\u005cBrimnes\u005cBrimnes bed 140 su stalciais\u005cBrimnes bed 140 su stalciais kojugalis.dxf
p65
S'BRMBWS140/BA-DE-2-5'
p66
sVs:\u005ckatalogas\u005cBrusali\u005cLova180\u005cBrusali 180 Kojugalis - koja D.dxf
p67
S'BRUB/BA-MA-2-03-1'
p68
sVs:\u005ckatalogas\u005cBrusali\u005cLova KG GB\u005cBrusali KG GB Galvugalis - koja D (B puse).dxf
p69
S'BRUB/BA-DE-04-1'
p70
sVs:\u005ckatalogas\u005cBrimnes\u005cBrimnes bed 180 su stalciais\u005cBrimnes bed 180 su stalciais kojugalio remas virsutinis.dxf
p71
S'BRMBWS180/BA-DE-2-1-7'
p72
sVs:\u005ckatalogas\u005cBrusali\u005cStalcius S2 DBL\u005cBrusali BOX DBL Sonas K,D.dxf
p73
S'BRUBB/BA-DE-3-1'
p74
sVs:\u005ckatalogas\u005cBrimnes\u005cBrimnes DAY BED\u005cBrimnes DAY BED karkaso galas a puse.dxf
p75
S'BRMBDAY/BA-DE-2-1'
p76
sVs:\u005ckatalogas\u005cBrimnes\u005cBrimnes bed DBL GB su stalciais\u005cBrimnes bed DBL GB su stalciais centrine pertvara A puse.dxf
p77
S'BRMBDBL/BA-DE-2-6-4'
p78
sVs:\u005ckatalogas\u005cBrusali\u005cKomoda 3st\u005cBrusali C3W Sonas D (2).dxf
p79
S'BRUC3/BA-DE-03-1'
p80
sVs:\u005ckatalogas\u005cBrimnes\u005cBrimnes galvugalis 180\u005cBrimnes galvugalis 180 virsutinis skydas.dxf
p81
S'BRMHDB180/BA-DE-1-3'
p82
sVs:\u005ckatalogas\u005cBrusali\u005cLova160\u005cBrusali 160 Galvugalis - koja K (B puse).dxf
p83
S'BRUB/BA-DE-4-1'
p84
sVs:\u005ckatalogas\u005cBrimnes\u005cBrimnes 3 duru spinta\u005cBrimnes 3 duru spinta dugnas.dxf
p85
S'BRMW/BA-DE-2-4'
p86
sVs:\u005ckatalogas\u005cBrusali\u005cLova KG GB\u005cBrusali KG GB Galvugalio juosta.dxf
p87
S'BRUBKG/BA-DE-5-1'
p88
sVs:\u005ckatalogas\u005cBrusali\u005cLova140\u005cBrusali 140 Kojugalis - koja K.dxf
p89
S'BRUB/BA-MA-2-3-1'
p90
sVs:\u005ckatalogas\u005cBrimnes\u005cBrimnes bed 140 su stalciais\u005cBrimnes bed 140 su stalciais kojugalio remas apatinis.dxf
p91
S'BRMBWS140/BA-DE-2-2-5'
p92
sVs:\u005ckatalogas\u005cBrimnes\u005cBrimnes spintele prie lovos\u005cBrimnes spintele prie lovos lentyna 2 kart.dxf
p93
S'2xBRMBDST/BA-DE-5-2'
p94
sVs:\u005ckatalogas\u005cBrimnes\u005cBrimnes galvugalis 140\u005cBrimnes galvugalis 140 sonas desine.dxf
p95
S'BRMHDB/BA-DE-03-2'
p96
sVs:\u005ckatalogas\u005cBrimnes\u005cBrimnes spintele prie lovos\u005cBrimnes spintele prie lovos virsus.dxf
p97
S'BRMCN/BA-DE-1-4'
p98
sVs:\u005ckatalogas\u005cBrimnes\u005cBrimnes galvugalis KG GB\u005cBrimnes galvugalis KG GB koja kaire.dxf
p99
S'BRMHDB/BA-DE-9-6'
p100
sVs:\u005ckatalogas\u005cBrimnes\u005cBrimnes galvugalis KG GB\u005cBrimnes galvugalis KG GB galas desine b puse.dxf
p101
S'BRMHDB/BA-DE-07-5'
p102
sVs:\u005ckatalogas\u005cBrimnes\u005cBrimnes galvugalis 160\u005cBrimnes galvugalis 160 laisva lentyna.dxf
p103
S'BRMBHDB/BA-DE-4-5'
p104
sVs:\u005ckatalogas\u005cBrusali\u005cSpintele prie lovos\u005cBrusali BDST Priekine koja D.dxf
p105
S'BRUBDST/BA-DE-06-1'
p106
sVs:\u005ckatalogas\u005cBrimnes\u005cBrimnes galvugalis DBL GB\u005cBrimnes galvugalis DBL GB galas desine a puse.dxf
p107
S'BRMHDB/BA-DE-07-5'
p108
sVs:\u005ckatalogas\u005cBrimnes\u005cBrimnes bed 140 su stalciais\u005cBrimnes bed 140 su stalciais kojugalio remas centrinis.dxf
p109
S'BRMBWS/BA-DE-2-4-3'
p110
sVs:\u005ckatalogas\u005cBrusali\u005cStalcius S2 DBL\u005cBrusali BOX DBL Mazas galas.dxf
p111
S'BRUBB/BA-DE-6-1'
p112
sVs:\u005ckatalogas\u005cBrusali\u005cKomoda 4st plati\u005cBrusali C4W Sonas K (2).dxf
p113
S'BRUC4W/BA-DE-3-1'
p114
sVs:\u005ckatalogas\u005cBrusali\u005cLova140\u005cBrusali 140 Kojugalis.dxf
p115
S'BRUB140/BA-DE-2-1'
p116
sVs:\u005ckatalogas\u005cBrusali\u005cSpinta\u005cBrusali W3 Galine koja K.dxf
p117
S'BRUW/BA-DE-5-1'
p118
sVs:\u005ckatalogas\u005cBrimnes\u005cBrimnes bed 140 su stalciais\u005cBrimnes bed 140 su stalciais remas apatinis.dxf
p119
S'BRMBWS140/BA-DE-2-2-5'
p120
sVs:\u005ckatalogas\u005cBrusali\u005cSpinta\u005cBrusali W3 Dugnas (2).dxf
p121
S'BRUW/BA-DE-2-1'
p122
sVs:\u005ckatalogas\u005cBrusali\u005cStalcius BOX\u005cBrusali BOX Pertvara.dxf
p123
S'BRUBB/BA-DE-4-1'
p124
sVs:\u005ckatalogas\u005cBrimnes\u005cBrimnes bed frame DBL GB\u005cBrimnes bedframe DBL GB kojugalio sonas D.dxf
p125
S'BRMBFR/BA-DE-2-5-3'
p126
sVs:\u005ckatalogas\u005cBrusali\u005cLova S2 DBL\u005cBrusali S2 DBL Galvugalis - koja K (B puse).dxf
p127
S'BRUB/BA-DE-4-1'
p128
sVs:\u005ckatalogas\u005cBrimnes\u005cBrimnes galvugalis DBL GB\u005cBrimnes galvugalis DBL GB galas kaire b puse.dxf
p129
S'BRMHDB/BA-DE-7-5'
p130
sVs:\u005ckatalogas\u005cBrimnes\u005cBrimnes DAY BED\u005cBrimnes DAY BED sonas kaire d.dxf
p131
S'BRMBDAY/BA-MA-3-03-3'
p132
sVs:\u005ckatalogas\u005cBrimnes\u005cBrimnes 4 st komoda\u005cBrimnes 4 st komodos tvirtinimo juosta.dxf
p133
S'BRMCW/BA-PL-12-2'
p134
sVs:\u005ckatalogas\u005cBrimnes\u005cBrimnes galvugalis 160\u005cBrimnes galvugalis 160 galas desine a puse.dxf
p135
S'BRMHDB/BA-DE-07-5'
p136
sVs:\u005ckatalogas\u005cBrusali\u005cSpintele prie lovos\u005cBrusali BDST Virsus.dxf
p137
S'BRUBDST/BA-DE-1-2'
p138
sVs:\u005ckatalogas\u005cBrimnes\u005cBrimnes bed KG GB su stalciais\u005cBrimnes bed KG GB su stalciais stalciaus priekelis.dxf
p139
S'BRMBWS/BA-DE-10-1'
p140
sVs:\u005ckatalogas\u005cBrusali\u005cKomoda 4st siaura\u005cBrusali C4N Galine juosta.dxf
p141
S'BRUC4N/BA-DE-7-1'
p142
sVs:\u005ckatalogas\u005cBrimnes\u005cBrimnes bed frame DBL GB\u005cBrimnes bedframe DBL GB sonas.dxf
p143
S'BRMBFRDBL/BA-DE-3-3'
p144
sVs:\u005ckatalogas\u005cBrusali\u005cKomoda 4st plati\u005cBrusali C4W Stalciaus priekelis.dfx.dwg.dxf
p145
S'BRUCW/BA-MA-2-1-3'
p146
sVs:\u005ckatalogas\u005cBrusali\u005cKomoda 3st\u005cBrusali C3W Virsutine juosta.dxf
p147
S'BRUCW/BA-DE-8-3'
p148
sVs:\u005ckatalogas\u005cBrimnes\u005cBrimnes bed KG GB su stalciais\u005cBrimnes bed KG GB su stalciais kojugalio pertvara.dxf
p149
S'BRMBWS/BA-DE-2-4-3'
p150
sVs:\u005ckatalogas\u005cBrimnes\u005cBrimnes galvugalis 180\u005cBrimnes galvugalis 180 koja desine.dxf
p151
S'BRMHDB/BA-DE-09-6'
p152
sVs:\u005ckatalogas\u005cBrimnes\u005cBrimnes 4 st komoda\u005cBrimnes 4 st komodos fasadas.dxf
p153
S'BRMCW/BA-DE-10-2-2'
p154
sVs:\u005ckatalogas\u005cBrimnes\u005cBrimnes 2 duru spinta\u005cBrimnes 2 duru spinta duru remas su lankstais.dxf
p155
S'BRMW/BA-MA-10-1-5'
p156
sVs:\u005ckatalogas\u005cBrimnes\u005cBrimnes DAY BED\u005cBrimnes DAY BED didelio st tvirtinimas (2-2).dxf
p157
S'BRMBDAY/BA-DE-6-5'
p158
sVs:\u005ckatalogas\u005cBrusali\u005cSpinta\u005cBrusali W3 Siaura lentyna (2).dxf
p159
S'BRUBW/BA-DE-8-1'
p160
sVs:\u005ckatalogas\u005cBrusali\u005cLova140\u005cBrusali 140 Galvugalio juosta.dxf
p161
S'BRUB140/BA-DE-5-1'
p162
sVs:\u005ckatalogas\u005cBrusali\u005cLova KG GB\u005cBrusali KG GB Kojugalis.dxf
p163
S'BRUBKG/BA-DE-2-1'
p164
sVs:\u005ckatalogas\u005cBrimnes\u005cBrimnes bed 140 su stalciais\u005cBrimnes bed 140 su stalciais priekelis.dxf
p165
S'BRMBWS/BA-DE-10-1'
p166
sVs:\u005ckatalogas\u005cBrimnes\u005cBrimnes DAY BED\u005cBrimnes DAY BED stalciuko priekis 2 kart.dxf
p167
S'2xBRMBDAY/BA-DE-4-1'
p168
sVs:\u005ckatalogas\u005cBrimnes\u005cBrimnes galvugalis KG GB\u005cBrimnes galvugalis KG GB virsutinis skydas.dxf
p169
S'BRMHDBKG/BA-DE-1-3'
p170
sVs:\u005ckatalogas\u005cBrimnes\u005cBrimnes galvugalis 160\u005cBrimnes galvugalis 160 sonas kaire.dxf
p171
S'BRMHDB/BA-DE-3-2'
p172
sVs:\u005ckatalogas\u005cBrimnes\u005cBrimnes galvugalis DBL GB\u005cBrimnes galvugalis DBL GB sonas desine.dxf
p173
S'BRMHDB/BA-DE-03-2'
p174
sVs:\u005ckatalogas\u005cBrimnes\u005cBrimnes galvugalis 180\u005cBrimnes galvugalis 180 remo pertvara.dxf
p175
S'BRMHDB/BA-DE-11-6'
p176
sVs:\u005ckatalogas\u005cBrimnes\u005cBrimnes 3 duru spinta\u005cBrimnes 3 duru spinta plintusas galinis.dxf
p177
S'BRMW3/BA-DE-8-1'
p178
sVs:\u005ckatalogas\u005cBrusali\u005cKomoda 4st siaura\u005cBrusali C4N Lentyna 1.dxf
p179
S'BRUC4N/BA-DE-8-1'
p180
sVs:\u005ckatalogas\u005cBrusali\u005cSpintele prie lovos\u005cBrusali BDST Sonas K.dxf
p181
S'BRUBDST/BA-DE-3-2'
p182
sVs:\u005ckatalogas\u005cBrusali\u005cKomoda 3st\u005cBrusali C3W Galine koja K.dxf
p183
S'BRUC3/BA-DE-5-1'
p184
sVs:\u005ckatalogas\u005cBrimnes\u005cBrimnes galvugalis DBL GB\u005cBrimnes galvugalis DBL GB virsutinis skydas 2 kart.dxf
p185
S'2xBRMHDBDBL/BA-DE-1-3'
p186
sVs:\u005ckatalogas\u005cBrimnes\u005cBrimnes galvugalis 180\u005cBrimnes galvugalis 180 galas kaire b puse.dxf
p187
S'BRMHDB/BA-DE-7-5'
p188
sVs:\u005ckatalogas\u005cBrimnes\u005cBrimnes 4 st komoda\u005cBrimnes 4 st komodos virsutine juosta.dxf
p189
S'BRMCW/BA-DE-9-2'
p190
sVs:\u005ckatalogas\u005cBrimnes\u005cBrimnes 3 duru spinta\u005cBrimnes 3 duru spinta sonas kaire.dxf
p191
S'BRMW3/BA-DE-3-1'
p192
sVs:\u005ckatalogas\u005cBrusali\u005cLova180\u005cBrusali 180 Kojugalis - koja Ky.dxf
p193
S'BRUB/BA-MA-2-3-1'
p194
sVs:\u005ckatalogas\u005cBrusali\u005cLova140\u005cBrusali 140 Galvugalis - koja D (B puse).dxf
p195
S'BRUB/BA-DE-04-1'
p196
sVs:\u005ckatalogas\u005cBrusali\u005cKomoda 4st plati\u005cBrusali C4W Priekine koja K.dxf
p197
S'BRUC4W/BA-DE-4-1'
p198
sVs:\u005ckatalogas\u005cBrimnes\u005cBrimnes galvugalis KG GB\u005cBrimnes galvugalis KG GB galas kaire a puse.dxf
p199
S'BRMHDB/BA-DE-7-5'
p200
sVs:\u005ckatalogas\u005cBrimnes\u005cBrimnes bed KG GB su stalciais\u005cBrimnes bed KG GB su stalciais galine pertvara x2.dxf
p201
S'2xBRMBWS/BA-DE-7-3'
p202
sVs:\u005ckatalogas\u005cBrimnes\u005cBrimnes galvugalis KG GB\u005cBrimnes galvugalis KG GB sonas kaire.dxf
p203
S'BRMHDB/BA-DE-3-2'
p204
sVs:\u005ckatalogas\u005cBrimnes\u005cBrimnes 2 duru spinta\u005cBrimnes 2 duru spinta plintusas.dxf
p205
S'BRM/BA-DE-7-2'
p206
sVs:\u005ckatalogas\u005cBrimnes\u005cBrimnes 2 duru spinta\u005cBrimnes 2 duru spinta lentyna (naujas grezimas).dxf
p207
S'BRMW/BA-DE-5-5'
p208
sVs:\u005ckatalogas\u005cBrimnes\u005cBrimnes bed 180 su stalciais\u005cBrimnes bed 180 su stalciais jungiamoji juosta.dxf
p209
S'BRMWS/BA-DE-12-2'
p210
sVs:\u005ckatalogas\u005cBrusali\u005cLova160\u005cBrusali 160 Kojugalis - skydas.dxf
p211
S'BRUB160/BA-KA-2-1-1'
p212
sVs:\u005ckatalogas\u005cBrusali\u005cKomoda 3st\u005cBrusali C3W Priekine koja K.dxf
p213
S'BRUC3/BA-DE-4-1'
p214
sVs:\u005ckatalogas\u005cBrimnes\u005cBrimnes spintele prie lovos\u005cBrimnes spintele prie lovos sonas kaire.dxf
p215
S'BRMBDST/BA-DE-3-2'
p216
sVs:\u005ckatalogas\u005cBrimnes\u005cBrimnes DAY BED\u005cBrimnes DAY BED didelio st priekio pertvara.dxf
p217
S'BRMBDAY/BA-MA-1-4-3'
p218
sVs:\u005ckatalogas\u005cBrimnes\u005cBrimnes bed DBL GB su stalciais\u005cBrimnes bed DBL GB su stalciais sonai 2 kart.dxf
p219
S'2xBRMBWSDBL/BA-DE-3-1'
p220
sVs:\u005ckatalogas\u005cBrusali\u005cLova180\u005cBrusali 180 Sonas.dxf
p221
S'BRUB/BA-DE-3-1'
p222
sVs:\u005ckatalogas\u005cBrimnes\u005cBrimnes bed frame DBL GB\u005cBrimnes bedframe DBL GB galvugalis.dxf
p223
S'BRMBFRDBL/BA-DE-1-3'
p224
sVs:\u005ckatalogas\u005cBrimnes\u005cBrimnes 3 duru spinta\u005cBrimnes 3 duru spinta duru remas su rankena.dxf
p225
S'BRMW/BA-MA-10-2-7'
p226
sVs:\u005ckatalogas\u005cBrimnes\u005cBrimnes DAY BED\u005cBrimnes DAY BED didelio st galas.dxf
p227
S'BRMBDAY/BA-DE-5-2'
p228
sVs:\u005ckatalogas\u005cBrimnes\u005cBrimnes bed 160 su stalciais\u005cBrimnes bed 160 su stalciais kojugalio virsus.dxf
p229
S'BRMBWS160/BA-DE-2-1-7'
p230
sVs:\u005ckatalogas\u005cBrusali\u005cSpintele prie lovos\u005cBrusali BDST Galine koja K.dxf
p231
S'BRUBDST/BA-DE-7-1'
p232
sVs:\u005ckatalogas\u005cSniglar\u005cSNIGLAR DUGNAS apacia.dxf
p233
S'SNIGW/BA-DE-2-1'
p234
sVs:\u005ckatalogas\u005cBrimnes\u005cBrimnes 3 st komoda\u005cBrimnes 3 st komodos sonas 2 kart.dxf
p235
S'BRMC3/BA-DE-03-4\nPBRMC3/BA-DE-3-4'
p236
sVs:\u005ckatalogas\u005cBrusali\u005cLova140\u005cBrusali 140 Galvugalis - koja K (B puse).dxf
p237
S'BRUB/BA-DE-4-1'
p238
sVs:\u005ckatalogas\u005cBrimnes\u005cBrimnes bed 160 su stalciais\u005cBrimnes bed 160 su stalciais galvugalis.dxf
p239
S'BRMBWS160/BA-DE-1-3'
p240
sVs:\u005ckatalogas\u005cBrimnes\u005cBrimnes galvugalis 160\u005cBrimnes galvugalis 160 koja kaire.dxf
p241
S'BRMHDB/BA-DE-9-6'
p242
sVs:\u005ckatalogas\u005cBrimnes\u005cBrimnes bed DBL GB su stalciais\u005cBrimnes bed DBL GB su stalciais galine pertvara.dxf
p243
S'BRMBWSDBL/BA-DE-7-3'
p244
sVs:\u005ckatalogas\u005cBrimnes\u005cBrimnes bed 140 su stalciais\u005cBrimnes bed 140 su stalciais sonai.dxf
p245
S'BRMBWS/BA-DE-3-1'
p246
sVs:\u005ckatalogas\u005cBrimnes\u005cBrimnes galvugalis 140\u005cBrimnes galvugalis 140 virsutinis skydas.dxf
p247
S'BRMHDB140/BA-DE-1-3'
p248
sVs:\u005ckatalogas\u005cBrimnes\u005cBrimnes bed DBL GB su stalciais\u005cBrimnes bed DBL GB su stalciais priekelis.dxf
p249
S'BRMBWSDBL/BA-DE-10-1'
p250
sVs:\u005ckatalogas\u005cBrimnes\u005cBrimnes galvugalis 160\u005cBrimnes galvugalis 160 galas desine b puse.dxf
p251
S'BRMHDB/BA-DE-07-5'
p252
sVs:\u005ckatalogas\u005cBrusali\u005cKomoda 4st siaura\u005cBrusali C4N Stalciaus priekelio juosta.dxf
p253
S'BRUC4N/BA-MA-2-2-1'
p254
sVs:\u005ckatalogas\u005cBrusali\u005cLova S2 DBL\u005cBrusali S2 DBL Kojugalis - koja D.dxf
p255
S'BRUB/BA-MA-2-03-1'
p256
sVs:\u005ckatalogas\u005cBrimnes\u005cBrimnes 2 duru spinta\u005cBrimnes 2 duru spinta duru remas trumpas.dxf
p257
S'BRMW/BA-MA-11-3-2'
p258
sVs:\u005ckatalogas\u005cBrimnes\u005cBrimnes galvugalis 180\u005cBrimnes galvugalis 180 koja kaire.dxf
p259
S'BRMHDB/BA-DE-9-6'
p260
sVs:\u005ckatalogas\u005cBrusali\u005cKomoda 4st plati\u005cBrusali C4W Virsus.dxf
p261
S'BRUCW/BA-DE-1-2'
p262
sVs:\u005ckatalogas\u005cBrusali\u005cKomoda 4st siaura\u005cBrusali C4N Sonas K (2).dxf
p263
S'BRUC4N/BA-DE-3-1'
p264
sVs:\u005ckatalogas\u005cBrimnes\u005cBrimnes 3 duru spinta\u005cBrimnes 3 duru spinta pertvara kaires puses.dxf
p265
S'BRMW/BA-DE-6-1'
p266
sVs:\u005ckatalogas\u005cBrimnes\u005cBrimnes galvugalis KG GB\u005cBrimnes galvugalis KG GB galas kaire b puse.dxf
p267
S'BRMHDB/BA-DE-7-5'
p268
sVs:\u005ckatalogas\u005cBrimnes\u005cBrimnes 3 st komoda\u005cBrimnes 3 st komodos tvirtinimo juosta.dxf
p269
S'BRMCW/BA-PL-12-2'
p270
sVs:\u005ckatalogas\u005cBrimnes\u005cBrimnes DAY BED\u005cBrimnes DAY BED didelio st tvirtinimas (1-2).dxf
p271
S'BRMBDAY/BA-DE-6-5'
p272
sVs:\u005ckatalogas\u005cBrimnes\u005cBrimnes galvugalis 140\u005cBrimnes galvugalis 140 pertvara.dxf
p273
S'BRMHDB/BA-DE-6-5'
p274
sVs:\u005ckatalogas\u005cBrimnes\u005cBrimnes bed DBL GB su stalciais\u005cBrimnes bed DBL GB su stalciais kojugalio remas virsutinis.dxf
p275
S'BRMBWSDBL/BA-DE-2-1-7'
p276
sVs:\u005ckatalogas\u005cBrimnes\u005cBrimnes bed frame KG GB\u005cBrimnes bedframe KG GB galvugalis.dxf
p277
S'BRMBFRKG/BA-DE-1-3'
p278
sVs:\u005ckatalogas\u005cBrusali\u005cKomoda 3st\u005cBrusali C3W Virsus.dxf
p279
S'BRUCW/BA-DE-1-2'
p280
sVs:\u005ckatalogas\u005cBrimnes\u005cBrimnes galvugalis 160\u005cBrimnes galvugalis 160 virsutinis skydas.dxf
p281
S'BRMHDB160/BA-DE-1-3'
p282
sVs:\u005ckatalogas\u005cBrimnes\u005cBrimnes galvugalis DBL GB\u005cBrimnes galvugalis DBL GB apatinis remas.dxf
p283
S'BRMHDBDBL/BA-DE-10-7'
p284
sVs:\u005ckatalogas\u005cBrusali\u005cLova S2 DBL\u005cBrusali S2 DBL Galvugalis.dxf
p285
S'BRUBDBL/BA-DE-1-1'
p286
sVs:\u005ckatalogas\u005cBrusali\u005cSpinta\u005cBrusali W3 Pertvara (1).dxf
p287
S'BRUW/BA-DE-6-1'
p288
sVs:\u005ckatalogas\u005cBrusali\u005cKomoda 4st siaura\u005cBrusali C4N Priekine koja K.dxf
p289
S'BRUC4N/BA-DE-4-1'
p290
sVs:\u005ckatalogas\u005cBrimnes\u005cBrimnes 2 duru spinta\u005cBrimnes 2 duru spinta duru remas su rankena.dxf
p291
S'BRMW/BA-MA-10-2-7'
p292
sVs:\u005ckatalogas\u005cBrimnes\u005cBrimnes DAY BED\u005cBrimnes DAY BED sonas kaire k.dxf
p293
S'BRMBDAY/BA-MA-3-3-3'
p294
sVs:\u005ckatalogas\u005cBrimnes\u005cBrimnes DAY BED\u005cBrimnes DAY BED didelio st sonas k.dxf
p295
S'BRMBDAY/BA-DE-7-3'
p296
sVs:\u005ckatalogas\u005cBrusali\u005cKomoda 4st plati\u005cBrusali C4W Virsutine juosta.dxf
p297
S'BRUCW/BA-DE-8-3'
p298
sVs:\u005ckatalogas\u005cSniglar\u005cSNIGLAR VIRSUS apacia.dxf
p299
S'SNIGW/BA-DE-1-1'
p300
sVs:\u005ckatalogas\u005cBrusali\u005cLova140\u005cBrusali 140 Galvugalis.dxf
p301
S'BRUB140/BA-DE-1-1'
p302
sVs:\u005ckatalogas\u005cBrimnes\u005cBrimnes lentyna\u005cBrimnes lentynos sonai.dxf
p303
S'BRMWLS/BA-DE-3-4'
p304
sVs:\u005ckatalogas\u005cBrusali\u005cKomoda 4st siaura\u005cBrusali C4N Priekine koja D.dxf
p305
S'BRUC4N/BA-DE-04-1'
p306
sVs:\u005ckatalogas\u005cBrusali\u005cSpinta\u005cBrusali W3 Virsus (2).dxf
p307
S'BRUW/BA-DE-1-1'
p308
sVs:\u005ckatalogas\u005cBrimnes\u005cBrimnes 4 st komoda\u005cBrimnes 4 st komodos plintusas.dxf
p309
S'BRM/BA-DE-7-3'
p310
sVs:\u005ckatalogas\u005cBrimnes\u005cBrimnes bed frame KG GB\u005cBrimnes bedframe KG GB kojugalio remas apatinis.dxf
p311
S'BRMBFRKG/BA-DE-2-1-7'
p312
sVs:\u005ckatalogas\u005cBrusali\u005cSpinta\u005cBrusali W3 Priekine koja K.dxf
p313
S'BRUW/BA-DE-4-1'
p314
sVs:\u005ckatalogas\u005cBrimnes\u005cBrimnes spintele prie lovos\u005cBrimnes spintele prie lovos plintusas.dxf
p315
S'BRMCN/BA-DE-7-2'
p316
sVs:\u005ckatalogas\u005cBrusali\u005cSpinta\u005cBrusali W3 Priekine juosta.dxf
p317
S'BRUW/BA-DE-11-1'
p318
sVs:\u005ckatalogas\u005cBrusali\u005cSpinta\u005cBrusali W3 Sonas D.dxf
p319
S'BRUW/BA-DE-03-1'
p320
sVs:\u005ckatalogas\u005cBrusali\u005cKomoda 4st plati\u005cBrusali C4W Priekine koja D.dxf
p321
S'BRUC4W/BA-DE-04-1'
p322
sVs:\u005ckatalogas\u005cBrimnes\u005cBrimnes 4 st komoda\u005cBrimnes 4 st komodos sonas k.dxf
p323
S'BRMC4/BA-DE-3-3'
p324
sVs:\u005ckatalogas\u005cBrimnes\u005cBrimnes galvugalis 180\u005cBrimnes galvugalis 180 apatinis remas.dxf
p325
S'BRMHDB180/BA-DE-10-7'
p326
sVs:\u005ckatalogas\u005cBrimnes\u005cBrimnes bed 140 su stalciais\u005cBrimnes bed 140 su stalciais galine pertvara .dxf
p327
S'BRMBWS/BA-DE-7-3'
p328
sVs:\u005ckatalogas\u005cBrimnes\u005cBrimnes bed 180 su stalciais\u005cBrimnes bed 180 su stalciais galvugalis.dxf
p329
S'BRMBWS180/BA-DE-1-3'
p330
sVs:\u005ckatalogas\u005cBrusali\u005cStalcius BOX\u005cBrusali BOX Maz. tvirtinimo juosta.dxf
p331
S'BRUBB/BA-DE-8-3'
p332
sVs:\u005ckatalogas\u005cBrimnes\u005cBrimnes DAY BED\u005cBrimnes DAY BED didelio st priekis.dxf
p333
S'BRMBDAY/BA-DE-1-3'
p334
sVs:\u005ckatalogas\u005cBrimnes\u005cBrimnes bed 140 su stalciais\u005cBrimnes bed 140 su stalciais centrine pertvara b puse.dxf
p335
S'BRMB140/BA-DE-2-6-4'
p336
sVs:\u005ckatalogas\u005cBrimnes\u005cBrimnes DAY BED\u005cBrimnes DAY BED sonas desine d.dxf
p337
S'BRMBDAY/BA-MA-03-03-2'
p338
sVs:\u005ckatalogas\u005cBrimnes\u005cBrimnes bed KG GB su stalciais\u005cBrimnes bed KG GB su stalciais kojugalio virsus.dxf
p339
S'BRMBWSKG/BA-DE-2-1-7'
p340
sVs:\u005ckatalogas\u005cBrimnes\u005cBrimnes galvugalis KG GB\u005cBrimnes galvugalis KG GB virsutinis skydas 2 kart.dxf
p341
S'2xBRMHDBKG/BA-DE-1-3'
p342
sVs:\u005ckatalogas\u005cBrimnes\u005cBrimnes bed KG GB su stalciais\u005cBrimnes bed KG GB su stalciais galvugalis.dxf
p343
S'BRMBWSKG/BA-DE-1-3'
p344
sVs:\u005ckatalogas\u005cBrimnes\u005cBrimnes bed 160 su stalciais\u005cBrimnes bed 160 su stalciais galine pertvara 2 kart.dxf
p345
S'2xBRMBWS/BA-DE-7-3'
p346
sVs:\u005ckatalogas\u005cBrimnes\u005cBrimnes galvugalis DBL GB\u005cBrimnes galvugalis DBL GB laisva lentyna.dxf
p347
S'BRMBHDB/BA-DE-4-5'
p348
sVs:\u005ckatalogas\u005cBrusali\u005cKomoda 4st plati\u005cBrusali C4W Priekine apatine juosta.dxf
p349
S'BRUCW/BA-DE-6-3'
p350
sVs:\u005ckatalogas\u005cBrimnes\u005cBrimnes bed frame KG GB\u005cBrimnes bedframe KG GB kojugalio centrinis remas.dxf
p351
S'BRMBFR/BA-MA-2-4-3'
p352
sVs:\u005ckatalogas\u005cBrimnes\u005cBrimnes 3 duru spinta\u005cBrimnes 3 duru spinta lentyna didele.dxf
p353
S'BRMW/BA-DE-9-1'
p354
sVs:\u005ckatalogas\u005cBrimnes\u005cBrimnes bed 160 su stalciais\u005cBrimnes bed 160 su stalciais kojugalio sonas d,k.dxf
p355
S'BRMBWS/BA-DE-2-3-3'
p356
sVs:\u005ckatalogas\u005cBrimnes\u005cBrimnes 3 duru spinta\u005cBrimnes 3 duru spinta durys.dxf
p357
S'BRMW/BA-DE-10-5'
p358
sVs:\u005ckatalogas\u005cBrusali\u005cLova160\u005cBrusali 160 Kojugalio juosta.dxf
p359
S'BRUB160/BA-MA-2-2-1'
p360
sVs:\u005ckatalogas\u005cBrimnes\u005cBrimnes galvugalis 140\u005cBrimnes galvugalis 140 galas kaire a puse.dxf
p361
S'BRMHDB/BA-DE-7-5'
p362
sVs:\u005ckatalogas\u005cBrimnes\u005cBrimnes 3 st komoda\u005cBrimnes 3 st komodos plintusas.dxf
p363
S'BRM/BA-DE-7-3'
p364
sVs:\u005ckatalogas\u005cBrusali\u005cStalcius S2 DBL\u005cBrusali BOX DBL Mazas priekis.dxf
p365
S'BRUBB/BA-DE-2-1'
p366
sVs:\u005ckatalogas\u005cBrimnes\u005cBrimnes bed 180 su stalciais\u005cBrimnes bed 180 su stalciais centrine pertvara b puse.dxf
p367
S'BRMB180/BA-DE-2-6-4'
p368
sVs:\u005ckatalogas\u005cBrusali\u005cLova180\u005cBrusali 180 Galvugalis.dxf
p369
S'BRUB180/BA-DE-1-1'
p370
sVs:\u005ckatalogas\u005cBrimnes\u005cBrimnes bed 140 su stalciais\u005cBrimnes bed 140 su stalciais priekelis 2 kart.dxf
p371
S'2xBRMBWS/BA-DE-10-2'
p372
sVs:\u005ckatalogas\u005cBrimnes\u005cBrimnes spintele prie lovos\u005cBrimnes spintele prie lovos lentyna.dxf
p373
S'BRMBDST/BA-DE-5-2'
p374
sVs:\u005ckatalogas\u005cBrimnes\u005cBrimnes 2 duru spinta\u005cBrimnes 2 duru spinta dugnas.dxf
p375
S'BRMW/BA-DE-2-5'
p376
sVs:\u005ckatalogas\u005cBrimnes\u005cBrimnes bed 160 su stalciais\u005cBrimnes bed 160 su stalciais kojugalis.dxf
p377
S'BRMBWS160/BA-DE-2-5'
p378
sVs:\u005ckatalogas\u005cBrimnes\u005cBrimnes bed 160 su stalciais\u005cBrimnes bed 160 su stalciais centrine pertvara.dxf
p379
S'BRMB160/BA-DE-2-6-4'
p380
sVs:\u005ckatalogas\u005cBrimnes\u005cBrimnes bed 140 su stalciais\u005cBrimnes bed 140 su stalciais jungiamojo juosta.dxf
p381
S'BRMBWS/BA-DE-12-2'
p382
sVs:\u005ckatalogas\u005cBrimnes\u005cBrimnes galvugalis KG GB\u005cBrimnes galvugalis KG GB virsutinis remas.dxf
p383
S'BRMHDBKG/BA-DE-8-8'
p384
sVs:\u005ckatalogas\u005cBrusali\u005cLova180\u005cBrusali 180 Kojugalis - skydas.dxf
p385
S'BRUB180/BA-KA-2-1-1'
p386
sVs:\u005ckatalogas\u005cBrusali\u005cSpinta\u005cBrusali W3 Sonas D (2).dxf
p387
S'BRUW/BA-DE-3-1'
p388
sVs:\u005ckatalogas\u005cBrimnes\u005cBrimnes bed 180 su stalciais\u005cBrimnes bed 180 su stalciais centrine pertvara.dxf
p389
S'BRMB180/BA-DE-2-6-4'
p390
sVs:\u005ckatalogas\u005cBrimnes\u005cBrimnes bed DBL GB su stalciais\u005cBrimnes bed DBL GB su stalciais centrine pertvara B puse.dxf
p391
S'BRMBWSDBL/BA-DE-2-6-4'
p392
sVs:\u005ckatalogas\u005cBrimnes\u005cBrimnes galvugalis 140\u005cBrimnes galvugalis 140 sonas kaire.dxf
p393
S'BRMHDB/BA-DE-3-2'
p394
sVs:\u005ckatalogas\u005cBrimnes\u005cBrimnes galvugalis 160\u005cBrimnes galvugalis 160 pertvara.dxf
p395
S'BRMHDB/BA-DE-6-5'
p396
sVs:\u005ckatalogas\u005cBrusali\u005cLova180\u005cBrusali 180 Galvugalis - koja D (B puse).dxf
p397
S'BRUB/BA-DE-04-1'
p398
sVs:\u005ckatalogas\u005cBrimnes\u005cBrimnes 3 st komoda\u005cBrimnes 3 st komodos sonas d.dxf
p399
S'BRMC3/BA-DE-03-4'
p400
sVs:\u005ckatalogas\u005cBrimnes\u005cBrimnes 3 duru spinta\u005cBrimnes 3 duru spinta fiksuota lentyna.dxf
p401
S'BRMW3/BA-DE-4-1'
p402
sVs:\u005ckatalogas\u005cBrimnes\u005cBrimnes 4 st komoda\u005cBrimnes 4 st komodos st remas su grioveliu.dxf
p403
S'BRMCW/BA-MA-10-1-5'
p404
sVs:\u005ckatalogas\u005cBrimnes\u005cBrimnes galvugalis 140\u005cBrimnes galvugalis 140 galas kaire b puse.dxf
p405
S'BRMHDB/BA-DE-7-5'
p406
sVs:\u005ckatalogas\u005cBrimnes\u005cBrimnes bed frame DBL GB\u005cBrimnes bedframe DBL GB kojugalio remas apatinis.dxf
p407
S'BRMBFRDBL/BA-DE-2-1-7'
p408
sVs:\u005ckatalogas\u005cBrimnes\u005cBrimnes DAY BED\u005cBrimnes DAY BED karkaso galas b puse.dxf
p409
S'BRMBDAY/BA-DE-2-1'
p410
sVs:\u005ckatalogas\u005cSniglar\u005cSNIGLAR Durys.dxf
p411
S'SNIGW/BUK-DE-6-1'
p412
sVs:\u005ckatalogas\u005cBrimnes\u005cBrimnes galvugalis KG GB\u005cBrimnes galvugalis KG GB pertvara.dxf
p413
S'BRMHDB/BA-DE-6-5'
p414
sVs:\u005ckatalogas\u005cBrusali\u005cKomoda 3st\u005cBrusali C3W Stalciaus priekelis.dxf
p415
S'BRUCW/BA-MA-2-1-3'
p416
sVs:\u005ckatalogas\u005cSniglar\u005cSNIGLAR DUGNAS virsus.dxf
p417
S'SNIGW/BA-DE-2-1'
p418
sVs:\u005ckatalogas\u005cBrimnes\u005cBrimnes galvugalis 140\u005cBrimnes galvugalis 140 virsutinis remas.dxf
p419
S'BRMHDB140/BA-DE-8-8'
p420
sVs:\u005ckatalogas\u005cBrusali\u005cStalcius BOX\u005cBrusali BOX Galas.dxf
p421
S'BRUBB/BA-DE-5-1'
p422
sVs:\u005ckatalogas\u005cBrimnes\u005cBrimnes galvugalis 180\u005cBrimnes galvugalis 180 virsutinis skydas 2 kart.dxf
p423
S'2xBRMHDB180/BA-DE-1-3'
p424
sVs:\u005ckatalogas\u005cBrusali\u005cLova S2 DBL\u005cBrusali S2 DBL Kojugalis - skydas.dxf
p425
S'BRUBDBL/BA-KA-2-1-1'
p426
sVs:\u005ckatalogas\u005cBrusali\u005cLova S2 DBL\u005cBrusali S2 DBL Galvugalis - koja K (A puse).dxf
p427
S'BRUB/BA-DE-4-1'
p428
sVs:\u005ckatalogas\u005cBrimnes\u005cBrimnes DAY BED\u005cBrimnes DAY BED didelio st sonas d.dxf
p429
S'BRMBDAY/BA-DE-07-3'
p430
sVs:\u005ckatalogas\u005cBrusali\u005cKomoda 4st plati\u005cBrusali C4W Sonas D (2).dxf
p431
S'BRUC4W/BA-DE-03-1'
p432
sVs:\u005ckatalogas\u005cBrusali\u005cLova180\u005cBrusali 180 Galvugalis - koja D (A puse).dxf
p433
S'BRUB/BA-DE-04-1'
p434
sVs:\u005ckatalogas\u005cBrimnes\u005cBrimnes bed 160 su stalciais\u005cBrimnes bed 160 su stalciais sonas.dxf
p435
S'BRMBWS/BA-DE-3-2'
p436
sVs:\u005ckatalogas\u005cBrimnes\u005cBrimnes galvugalis 180\u005cBrimnes galvugalis 180 sonas kaire.dxf
p437
S'BRMHDB/BA-DE-3-2'
p438
sVs:\u005ckatalogas\u005cBrusali\u005cStalcius BOX\u005cBrusali BOX Mazo stalciaus priekis.dxf
p439
S'BRUBB/BA-DE-2-1'
p440
sVs:\u005ckatalogas\u005cBrimnes\u005cBrimnes 3 duru spinta\u005cBrimnes 3 duru spinta plintusas priekinis.dxf
p441
S'BRMW3/BA-DE-8-1'
p442
sVs:\u005ckatalogas\u005cBrimnes\u005cBrimnes galvugalis DBL GB\u005cBrimnes galvugalis DBL GB galas kaire a puse.dxf
p443
S'BRMHDB/BA-DE-7-5'
p444
sVs:\u005ckatalogas\u005cBrimnes\u005cBrimnes galvugalis KG GB\u005cBrimnes galvugalis KG GB koja desine.dxf
p445
S'BRMHDB/BA-DE-09-6'
p446
sVs:\u005ckatalogas\u005cBrimnes\u005cBrimnes galvugalis 140\u005cBrimnes galvugalis 140 koja desine.dxf
p447
S'BRMHDB/BA-DE-09-6'
p448
sVs:\u005ckatalogas\u005cBrimnes\u005cBrimnes bed frame KG GB\u005cBrimnes bedframe KG GB kojugalis.dxf
p449
S'BRMBFRKG/BA-DE-2-7'
p450
sVs:\u005ckatalogas\u005cBrimnes\u005cBrimnes galvugalis 160\u005cBrimnes galvugalis 160 koja desine.dxf
p451
S'BRMHDB/BA-DE-09-6'
p452
sVs:\u005ckatalogas\u005cBrusali\u005cKomoda 3st\u005cBrusali C3W Priekine koja D.dxf
p453
S'BRUC3/BA-DE-04-1'
p454
sVs:\u005ckatalogas\u005cBrimnes\u005cBrimnes bed 180 su stalciais\u005cBrimnes bed 180 su stalciais sonas.dxf
p455
S'BRMWS/BA-DE-3-2'
p456
sVs:\u005ckatalogas\u005cBrusali\u005cKomoda 4st plati\u005cBrusali C4W Sonas K.dxf
p457
S'BRUC4W/BA-DE-3-1'
p458
sVs:\u005ckatalogas\u005cBrusali\u005cKomoda 4st plati\u005cBrusali C4W Galine koja D.dxf
p459
S'BRUC4W/BA-DE-05-1'
p460
sVs:\u005ckatalogas\u005cBrimnes\u005cBrimnes 3 duru spinta\u005cBrimnes 3 duru spinta lentyna maza.dxf
p461
S'BRMW3/BA-DE-5-1'
p462
sVs:\u005ckatalogas\u005cBrimnes\u005cBrimnes bed DBL GB su stalciais\u005cBrimnes bed DBL GB su stalciais galvugalis.dxf
p463
S'BRMBWSDBL/BA-DE-1-3'
p464
sVs:\u005ckatalogas\u005cBrimnes\u005cBrimnes 3 st komoda\u005cBrimnes 3 st komodos virsutine juosta.dxf
p465
S'BRMCW/BA-DE-9-2'
p466
sVs:\u005ckatalogas\u005cBrimnes\u005cBrimnes 2 duru spinta\u005cBrimnes 2 duru spinta lentyna (naujas grezimas) - apsukta.dxf
p467
S'BRMW/BA-DE-5-5'
p468
sVs:\u005ckatalogas\u005cBrusali\u005cLova160\u005cBrusali 160 Sonas.dxf
p469
S'BRUB/BA-DE-3-1'
p470
sVs:\u005ckatalogas\u005cBrusali\u005cStalcius BOX\u005cBrusali BOX Sonas K,D.dxf
p471
S'BRUBB/BA-DE-3-1'
p472
sVs:\u005ckatalogas\u005cBrimnes\u005cBrimnes galvugalis DBL GB\u005cBrimnes galvugalis DBL GB koja kaire.dxf
p473
S'BRMHDB/BA-DE-9-6'
p474
sVs:\u005ckatalogas\u005cBrimnes\u005cBrimnes galvugalis 180\u005cBrimnes galvugalis 180 sonas desine.dxf
p475
S'BRMHDB/BA-DE-03-2'
p476
sVs:\u005ckatalogas\u005cBrusali\u005cStalcius BOX\u005cBrusali BOX Did. tvirtinimo juosta juosta.dxf
p477
S'BRUBB/BA-DE-7-1'
p478
sVs:\u005ckatalogas\u005cBrusali\u005cSpintele prie lovos\u005cBrusali BDST Priekine koja K.dxf
p479
S'BRUBDST/BA-DE-6-1'
p480
sVs:\u005ckatalogas\u005cBrusali\u005cLova S2 DBL\u005cBrusali S2 DBL Galvugalis - koja D (A puse).dxf
p481
S'BRUB/BA-DE-04-1'
p482
sVs:\u005ckatalogas\u005cBrimnes\u005cBrimnes 4 st komoda\u005cBrimnes 4 st komodos st remas su rankena.dxf
p483
S'BRMCW/BA-MA-10-2-6'
p484
sVs:\u005ckatalogas\u005cBrimnes\u005cBrimnes 3 duru spinta\u005cBrimnes 3 duru spinta sonas desine.dxf
p485
S'BRMW3/BA-DE-03-1'
p486
sVs:\u005ckatalogas\u005cBrimnes\u005cBrimnes bed frame KG GB\u005cBrimnes bedframe KG GB kojugalio sonas D.dxf
p487
S'BRMBFR/BA-DE-2-5-3'
p488
sVs:\u005ckatalogas\u005cBrimnes\u005cBrimnes DAY BED\u005cBrimnes DAY BED stalciuko priekis.dxf
p489
S'BRMBDAY/BA-DE-4-1'
p490
sVs:\u005ckatalogas\u005cBrimnes\u005cBrimnes DAY BED\u005cBrimnes DAY BED didelio st priekio sonas kaire.dxf
p491
S'BRMBDAY/BA-MA-1-3-6'
p492
sVs:\u005ckatalogas\u005cBrusali\u005cSpintele prie lovos\u005cBrusali BDST Dureles.dxf
p493
S'BRUBDST/BA-DE-5-1'
p494
sVs:\u005ckatalogas\u005cBrimnes\u005cBrimnes 2 duru spinta\u005cBrimnes 2 duru spinta sonas desine.dxf
p495
S'BRMW/BA-DE-03-5'
p496
sVs:\u005ckatalogas\u005cBrimnes\u005cBrimnes 4 st siaura komoda\u005cBrimnes 4 st siaura komodos st remas su grioveliu.dxf
p497
S'BRMCN/BA-MA-10-1-5'
p498
sVs:\u005ckatalogas\u005cBrusali\u005cKomoda 3st\u005cBrusali C3W Sonas D.dxf
p499
S'BRUC3/BA-DE-03-1'
p500
sVs:\u005ckatalogas\u005cBrusali\u005cStalcius S2 DBL\u005cBrusali BOX DBL Did. tvirtinimo juosta.dxf
p501
S'BRUBB/BA-DE-7-1'
p502
sVs:\u005ckatalogas\u005cBrimnes\u005cBrimnes galvugalis DBL GB\u005cBrimnes galvugalis DBL GB sonas kaire.dxf
p503
S'BRMHDB/BA-DE-3-2'
p504
sVs:\u005ckatalogas\u005cBrimnes\u005cBrimnes galvugalis 140\u005cBrimnes galvugalis 140 fiksuota lentyna.dxf
p505
S'BRMHDB/BA-DE-5-7'
p506
sVs:\u005ckatalogas\u005cBrusali\u005cLova180\u005cBrusali 180 Galvugalis - koja K (A puse).dxf
p507
S'BRUB/BA-DE-4-1'
p508
sVs:\u005ckatalogas\u005cBrimnes\u005cBrimnes 3 duru spinta\u005cBrimnes 3 duru spinta dugnas B.dxf
p509
S'BRMW/BA-DE-2-4'
p510
sVs:\u005ckatalogas\u005cBrimnes\u005cBrimnes galvugalis KG GB\u005cBrimnes galvugalis KG GB apatinis remas.dxf
p511
S'BRMHDBKG/BA-DE-10-7'
p512
sVs:\u005ckatalogas\u005cSniglar\u005cSNIGLAR DURU trumpas remas.dxf
p513
S'SNIGW/BUK-MA-6-2'
p514
sVs:\u005ckatalogas\u005cBrimnes\u005cBrimnes bed DBL GB su stalciais\u005cBrimnes bed DBL GB su stalciais galine pertvara x2.dxf
p515
S'2xBRMBWSDBL/BA-DE-7-3'
p516
sVs:\u005ckatalogas\u005cBrimnes\u005cBrimnes bed 180 su stalciais\u005cBrimnes bed 180 su stalciais stalciaus priekelis.dxf
p517
S'BRMBWS/BA-DE-10-1'
p518
sVs:\u005ckatalogas\u005cBrusali\u005cSpinta\u005cBrusali W3 Galine koja D.dxf
p519
S'BRUW/BA-DE-05-1'
p520
sVs:\u005ckatalogas\u005cBrimnes\u005cBrimnes bed 180 su stalciais\u005cBrimnes bed 180 su stalciais kojugalio remas k,d.dxf
p521
S'BRMBWS/BA-DE-2-3-3'
p522
sVs:\u005ckatalogas\u005cBrusali\u005cKomoda 4st plati\u005cBrusali C4W Galine juosta.dxf
p523
S'BRUCW/BA-DE-7-1'
p524
sVs:\u005ckatalogas\u005cBrimnes\u005cBrimnes 4 st komoda\u005cBrimnes 4 st komodos st remas desine.dxf
p525
S'BRMC/BA-MA-10-03-2'
p526
sVs:\u005ckatalogas\u005cBrimnes\u005cBrimnes spintele prie lovos\u005cBrimnes spintele prie lovos tvirtinimo juosta.dxf
p527
S'BRMCN/BA-PL-12-2'
p528
sVs:\u005ckatalogas\u005cBrusali\u005cStalcius BOX\u005cBrusali BOX Mazo stalciaus galas.dxf
p529
S'BRUBB/BA-DE-6-1'
p530
sVs:\u005ckatalogas\u005cBrimnes\u005cBrimnes bed 160 su stalciais\u005cBrimnes bed 160 su stalciais kojugalio apacia.dxf
p531
S'BRMBWS160/BA-DE-2-2-5'
p532
sVs:\u005ckatalogas\u005cBrimnes\u005cBrimnes bed 180 su stalciais\u005cBrimnes bed 180 su stalciais kojugalio remas apatinis.dxf
p533
S'BRMBWS180/BA-DE-2-2-5'
p534
sVs:\u005ckatalogas\u005cBrusali\u005cLova160\u005cBrusali 160 Galvugalis - koja D (B puse).dxf
p535
S'BRUB/BA-DE-04-1'
p536
sVs:\u005ckatalogas\u005cBrusali\u005cKomoda 4st siaura\u005cBrusali C4N Sonas D.dxf
p537
S'BRUC4N/BA-DE-03-2'
p538
sVs:\u005ckatalogas\u005cBrusali\u005cSpinta\u005cBrusali W3 Durys surinktos.dxf
p539
S'BRUW/BA-DE-10-1'
p540
sVs:\u005ckatalogas\u005cBrimnes\u005cBrimnes galvugalis 140\u005cBrimnes galvugalis 140 apatinis remas.dxf
p541
S'BRMHDB140/BA-DE-10-7'
p542
sVs:\u005ckatalogas\u005cBrusali\u005cSpinta\u005cBrusali W3 Plati lentyna.dxf
p543
S'BRUW/BA-DE-7-1'
p544
sVs:\u005ckatalogas\u005cBrimnes\u005cBrimnes bed frame DBL GB\u005cBrimnes bedframe DBL GB kojugalio sonas K.dxf
p545
S'BRMBFR/BA-DE-2-3-3'
p546
sVs:\u005ckatalogas\u005cBrimnes\u005cBrimnes galvugalis 140\u005cBrimnes galvugalis 140 koja kaire.dxf
p547
S'BRMHDB/BA-DE-9-6'
p548
sVs:\u005ckatalogas\u005cBrusali\u005cKomoda 4st siaura\u005cBrusali C4N Stalciaus priekelis.dxf
p549
S'BRUC4N/BA-MA-2-1-2'
p550
sVs:\u005ckatalogas\u005cBrimnes\u005cBrimnes DAY BED\u005cBrimnes DAY BED sonas kaire apacia.dxf
p551
S'BRMBDAY/BA-MA-3-2-4'
p552
sVs:\u005ckatalogas\u005cBrusali\u005cLova140\u005cBrusali 140 Kojugalio juosta.dxf
p553
S'BRUB140/BA-MA-2-2-1'
p554
sVs:\u005ckatalogas\u005cBrusali\u005cKomoda 3st\u005cBrusali C3W Galine koja D.dxf
p555
S'BRUC3/BA-DE-05-1'
p556
sVs:\u005ckatalogas\u005cBrimnes\u005cBrimnes 4 st komoda\u005cBrimnes 4 st komodos sonas d,k.dxf
p557
S'BRMC4/BA-DE-3-3\nPBRMC4/BA-DE-03-3'
p558
sVs:\u005ckatalogas\u005cBrimnes\u005cBrimnes DAY BED\u005cBrimnes DAY BED didelio st priekio apacia.dxf
p559
S'BRMBDAY/BA-MA-1-2-6'
p560
sVs:\u005ckatalogas\u005cBrimnes\u005cBrimnes galvugalis 180\u005cBrimnes galvugalis 180 galas kaire a puse.dxf
p561
S'BRMHDB/BA-DE-7-5'
p562
sVs:\u005ckatalogas\u005cBrimnes\u005cBrimnes bed 140 su stalciais\u005cBrimnes bed 140 su stalciais galine pertvara 2 kart.dxf
p563
S'2xBRMBWS/BA-DE-7-3'
p564
sVs:\u005ckatalogas\u005cBrusali\u005cSpinta\u005cBrusali W3 Dugnas.dxf
p565
S'BRUW/BA-DE-2-1'
p566
sVs:\u005ckatalogas\u005cBrimnes\u005cBrimnes 3 st komoda\u005cBrimnes 3 st komodos fasadas.dxf
p567
S'BRMCW/BA-DE-10-2-2'
p568
sVs:\u005ckatalogas\u005cBrimnes\u005cBrimnes galvugalis 160\u005cBrimnes galvugalis 160 virsutinis remas.dxf
p569
S'BRMHDB160/BA-DE-8-8'
p570
sVs:\u005ckatalogas\u005cBrusali\u005cLova S2 DBL\u005cBrusali S2 DBL Galvugalis - koja D (B puse).dxf
p571
S'BRUB/BA-DE-04-1'
p572
sVs:\u005ckatalogas\u005cBrimnes\u005cBrimnes DAY BED\u005cBrimnes DAY BED didelio st priekio virsus.dxf
p573
S'BRMBDAY/BA-MA-1-1-3'
p574
sVs:\u005ckatalogas\u005cBrusali\u005cKomoda 4st plati\u005cBrusali C4W Stalciaus priekelis.dxf
p575
S'BRUCW/BA-MA-2-1-3'
p576
sVs:\u005ckatalogas\u005cBrusali\u005cLova KG GB\u005cBrusali KG GB Kojugalis - koja D.dxf
p577
S'BRUB/BA-MA-2-03-1'
p578
sVs:\u005ckatalogas\u005cBrusali\u005cKomoda 4st plati\u005cBrusali C4W Sonas D.dxf
p579
S'BRUC4W/BA-DE-03-1'
p580
sVs:\u005ckatalogas\u005cBrimnes\u005cBrimnes galvugalis DBL GB\u005cBrimnes galvugalis DBL GB pertvara.dxf
p581
S'BRMHDB/BA-DE-6-5'
p582
sVs:\u005ckatalogas\u005cBrimnes\u005cBrimnes bed KG GB su stalciais\u005cBrimnes bed KG GB su stalciais sonas x2.dxf
p583
S'2xBRMBWS/BA-DE-3-2'
p584
sVs:\u005ckatalogas\u005cBrimnes\u005cBrimnes DAY BED\u005cBrimnes DAY BED sonas kaire virsus.dxf
p585
S'BRMBDAY/BA-MA-3-1-5'
p586
sVs:\u005ckatalogas\u005cBrimnes\u005cBrimnes lentyna\u005cBrimnes lentynos virsus apacia.dxf
p587
S'BRMWLS/BA-DE-1-4'
p588
sVs:\u005ckatalogas\u005cBrimnes\u005cBrimnes spintele prie lovos\u005cBrimnes spintele prie lovos sonai 2 kart.dxf
p589
S'BRMBDST/BA-DE-3-2\nPBRMBDST/BA-DE-03-2'
p590
sVs:\u005ckatalogas\u005cBrusali\u005cKomoda 4st siaura\u005cBrusali C4N Galine koja D.dxf
p591
S'BRUC4N/BA-DE-05-3'
p592
sVs:\u005ckatalogas\u005cBrimnes\u005cBrimnes galvugalis DBL GB\u005cBrimnes galvugalis DBL GB fiksuota lentyna.dxf
p593
S'BRMHDB/BA-DE-5-7'
p594
sVs:\u005ckatalogas\u005cBrimnes\u005cBrimnes bed frame DBL GB\u005cBrimnes bedframe DBL GB kojugalis.dxf
p595
S'BRMBFRDBL/BA-DE-2-7'
p596
sVs:\u005ckatalogas\u005cBrimnes\u005cBrimnes bed DBL GB su stalciais\u005cBrimnes bed DBL GB su stalciais priekelis 2 kart.dxf
p597
S'2xBRMBWSDBL/BA-DE-10-2'
p598
sVs:\u005ckatalogas\u005cBrimnes\u005cBrimnes bed frame KG GB\u005cBrimnes bedframe KG GB sonas.dxf
p599
S'BRMBFR/BA-DE-3-3'
p600
sVs:\u005ckatalogas\u005cBrusali\u005cSpintele prie lovos\u005cBrusali BDST Lentyna.dxf
p601
S'BRUBDST/BA-DE-4-1'
p602
sVs:\u005ckatalogas\u005cBrimnes\u005cBrimnes 3 st komoda\u005cBrimnes 3 st komodos st remas desine.dxf
p603
S'BRMC/BA-MA-10-03-2'
p604
sVs:\u005ckatalogas\u005cBrimnes\u005cBrimnes galvugalis KG GB\u005cBrimnes galvugalis KG GB laisva lentyna.dxf
p605
S'BRMBHDB/BA-DE-4-5'
p606
sVs:\u005ckatalogas\u005cBrimnes\u005cBrimnes galvugalis 160\u005cBrimnes galvugalis 160 galas kaire a puse.dxf
p607
S'BRMHDB/BA-DE-7-5'
p608
sVs:\u005ckatalogas\u005cSniglar\u005cSNIGLAR DURU ilgas remas.dxf
p609
S'SNIGW/BUK-MA-6-1-1'
p610
sVs:\u005ckatalogas\u005cBrusali\u005cKomoda 3st\u005cBrusali C3W Galine juosta.dxf
p611
S'BRUCW/BA-DE-7-1'
p612
sVs:\u005ckatalogas\u005cBrimnes\u005cBrimnes galvugalis 140\u005cBrimnes galvugalis 140 remo pertvara.dxf
p613
S'BRMHDB/BA-DE-11-6'
p614
sVs:\u005ckatalogas\u005cBrusali\u005cLova160\u005cBrusali 160 Kojugalis.dxf
p615
S'BRUB160/BA-DE-2-1'
p616
sVs:\u005ckatalogas\u005cBrusali\u005cLova160\u005cBrusali 160 Galvugalis - koja K (A puse).dxf
p617
S'BRUB/BA-DE-4-1'
p618
sVs:\u005ckatalogas\u005cBrimnes\u005cBrimnes galvugalis DBL GB\u005cBrimnes galvugalis DBL GB virsutinis remas.dxf
p619
S'BRMHDBDBL/BA-DE-8-8'
p620
sVs:\u005ckatalogas\u005cBrimnes\u005cBrimnes 3 duru spinta\u005cBrimnes 3 duru spinta virsus.dxf
p621
S'BRMW3/BA-DE-1-1'
p622
sVs:\u005ckatalogas\u005cBrusali\u005cLova140\u005cBrusali 140 Galvugalis - koja K (A puse).dxf
p623
S'BRUB/BA-DE-4-1'
p624
sVs:\u005ckatalogas\u005cBrimnes\u005cBrimnes 3 st komoda\u005cBrimnes 3 st komodos virsus.dxf
p625
S'BRMCW/BA-DE-1-4'
p626
sVs:\u005ckatalogas\u005cBrusali\u005cStalcius S2 DBL\u005cBrusali BOX DBL Did. Galas.dxf
p627
S'BRUBBDBL/BA-DE-5-1'
p628
sVs:\u005ckatalogas\u005cBrimnes\u005cBrimnes 4 st siaura komoda\u005cBrimnes 4 st siaura komodos tvirtinimo juosta.dxf
p629
S'BRMCN/BA-PL-12-2'
p630
sVs:\u005ckatalogas\u005cBrimnes\u005cBrimnes galvugalis KG GB\u005cBrimnes galvugalis KG GB galas desine a puse.dxf
p631
S'BRMHDB/BA-DE-07-5'
p632
sVs:\u005ckatalogas\u005cBrusali\u005cStalcius S2 DBL\u005cBrusali BOX DBL Maz. tvirtinimo juosta.dxf
p633
S'BRUBB/BA-DE-8-3'
p634
sVs:\u005ckatalogas\u005cBrimnes\u005cBrimnes bed DBL GB su stalciais\u005cBrimnes bed DBL GB su stalciais kojugalio remas apatinis.dxf
p635
S'BRMBWSDBL/BA-DE-2-2-5'
p636
sVs:\u005ckatalogas\u005cBrimnes\u005cBrimnes DAY BED\u005cBrimnes DAY BED sonas kaire.dxf
p637
S'BRMBDAY/BA-DE-3-3'
p638
sVs:\u005ckatalogas\u005cBrusali\u005cKomoda 4st siaura\u005cBrusali C4N Stalciaus priekelis 2xkartotinumo.dxf
p639
S'BRUC4N/BA-MA-2-1-2'
p640
sVs:\u005ckatalogas\u005cBrusali\u005cLova160\u005cBrusali 160 Galvugalis - koja D (A puse).dxf
p641
S'BRUB/BA-DE-04-1'
p642
sVs:\u005ckatalogas\u005cBrimnes\u005cBrimnes galvugalis 140\u005cBrimnes galvugalis 140 laisva lentyna.dxf
p643
S'BRMBHDB/BA-DE-4-5'
p644
sVs:\u005ckatalogas\u005cBrusali\u005cKomoda 3st\u005cBrusali C3W Stalciaus priekelio juosta.dxf
p645
S'BRUCW/BA-MA-2-2-1'
p646
sVs:\u005ckatalogas\u005cBrimnes\u005cBrimnes 4 st siaura komoda\u005cBrimnes 4 st siaura komodos st remas kaire.dxf
p647
S'BRMC/BA-MA-10-3-2'
p648
sVs:\u005ckatalogas\u005cBrimnes\u005cBrimnes bed KG GB su stalciais\u005cBrimnes bed KG GB su stalciais kojugalio apacia.dxf
p649
S'BRMBWSKG/BA-DE-2-2-5'
p650
sVs:\u005ckatalogas\u005cBrusali\u005cLova KG GB\u005cBrusali KG GB Galvugalis - koja D (A puse).dxf
p651
S'BRUB/BA-DE-04-1'
p652
sVs:\u005ckatalogas\u005cBrimnes\u005cBrimnes galvugalis 180\u005cBrimnes galvugalis 180 virsutinis remas.dxf
p653
S'BRMHDB180/BA-DE-8-8'
p654
sVs:\u005ckatalogas\u005cSniglar\u005cSNIGLAR Pertvara 2puse.dxf
p655
S'SNIGW/BA-DE-4-1'
p656
sVs:\u005ckatalogas\u005cBrimnes\u005cBrimnes bed 140 su stalciais\u005cBrimnes bed 140 su stalciais kojugalio remas k,d.dxf
p657
S'BRMBWS/BA-DE-2-3-3'
p658
sVs:\u005ckatalogas\u005cBrusali\u005cKomoda 4st siaura\u005cBrusali C4N Virsus.dxf
p659
S'BRUC4N/BA-DE-1-2'
p660
sVs:\u005ckatalogas\u005cBrimnes\u005cBrimnes 4 st siaura komoda\u005cBrimnes 4 st siaura komodos plintusas.dxf
p661
S'BRMCN/BA-DE-7-2'
p662
sVs:\u005ckatalogas\u005cBrimnes\u005cBrimnes galvugalis 140\u005cBrimnes galvugalis 140 galas desine b puse.dxf
p663
S'BRMHDB/BA-DE-07-5'
p664
sVs:\u005ckatalogas\u005cBrusali\u005cLova140\u005cBrusali 140 Kojugalis - koja D.dxf
p665
S'BRUB/BA-MA-2-03-1'
p666
sVs:\u005ckatalogas\u005cBrusali\u005cKomoda 4st plati\u005cBrusali C4W Galine koja K.dxf
p667
S'BRUC4W/BA-DE-5-1'
p668
sVs:\u005ckatalogas\u005cBrimnes\u005cBrimnes 2 duru spinta\u005cBrimnes 2 duru spinta durys.dxf
p669
S'BRMW/BA-DE-10-5'
p670
sVs:\u005ckatalogas\u005cBrusali\u005cLova140\u005cBrusali 140 Galvugalis - koja D (A puse).dxf
p671
S'BRUB/BA-DE-04-1'
p672
sVs:\u005ckatalogas\u005cBrimnes\u005cBrimnes DAY BED\u005cBrimnes DAY BED sonas desine k.dxf
p673
S'BRMBDAY/BA-MA-03-3-3'
p674
sVs:\u005ckatalogas\u005cBrusali\u005cLova160\u005cBrusali 160 Kojugalis - koja K.dxf
p675
S'BRUB/BA-MA-2-3-1'
p676
sVs:\u005ckatalogas\u005cBrimnes\u005cBrimnes bed DBL GB su stalciais\u005cBrimnes bed DBL GB su stalciais kojugalio remas K,D.dxf
p677
S'BRMBWS/BA-DE-2-3-3'
p678
sVs:\u005ckatalogas\u005cBrimnes\u005cBrimnes bed 180 su stalciais\u005cBrimnes bed 180 su stalciais kojugalio remo pertvara.dxf
p679
S'BRMBWS/BA-DE-2-4-3'
p680
sVs:\u005ckatalogas\u005cBrusali\u005cKomoda 4st plati\u005cBrusali C4W Stalciaus priekelis 2x kartotinumo.dxf
p681
S'BRUCW/BA-MA-2-1-3'
p682
sVs:\u005ckatalogas\u005cBrimnes\u005cnoname.dxf.dxf
p683
S'BRMW3/BA-DE-1-1'
p684
sVs:\u005ckatalogas\u005cBrusali\u005cLova140\u005cBrusali 140 Kojugalis - skydas.dxf
p685
S'BRUB140/BA-KA-2-1-1'
p686
sVs:\u005ckatalogas\u005cBrimnes\u005cBrimnes 4 st siaura komoda\u005cBrimnes 4 st siaura komodos virsus.dxf
p687
S'BRMCN/BA-DE-1-4'
p688
sVs:\u005ckatalogas\u005cBrusali\u005cLova KG GB\u005cBrusali KG GB Galvugalis - koja K (B puse).dxf
p689
S'BRUB/BA-DE-4-1'
p690
sVs:\u005ckatalogas\u005cBrimnes\u005cBrimnes lentyna\u005cBrimnes lentynos pertvara.dxf
p691
S'BRMWLS/BA-DE-6-1'
p692
sVs:\u005ckatalogas\u005cBrimnes\u005cBrimnes 4 st siaura komoda\u005cBrimnes 4 st siaura komodos sonas d.dxf
p693
S'BRMC4/BA-DE-3-3'
p694
sVs:\u005ckatalogas\u005cBrusali\u005cSpintele prie lovos\u005cBrusali BDST Sonas K (2).dxf
p695
S'BRUBDST/BA-DE-3-1'
p696
sVs:\u005ckatalogas\u005cBrusali\u005cSpinta\u005cBrusali W3 Pertvara (2).dxf
p697
S'BRUW/BA-DE-6-1'
p698
sVs:\u005ckatalogas\u005cBrimnes\u005cBrimnes bed 160 su stalciais\u005cBrimnes bed 160 su stalciais jungiamoji juosta.dxf
p699
S'BRMBWS/BA-DE-12-2'
p700
sVs:\u005ckatalogas\u005cBrimnes\u005cBrimnes bed 160 su stalciais\u005cBrimnes bed 160 su stalciais galine pertvara .dxf
p701
S'BRMBWS/BA-DE-7-3'
p702
sVs:\u005ckatalogas\u005cBrimnes\u005cBrimnes bed KG GB su stalciais\u005cBrimnes bed KG GB su stalciais kojugalis.dxf
p703
S'BRMBWSKG/BA-DE-2-2'
p704
sVs:\u005ckatalogas\u005cBrimnes\u005cBrimnes bed 160 su stalciais\u005cBrimnes bed 160 su stalciais stalciaus priekelis.dxf
p705
S'BRMBWS/BA-DE-10-1'
p706
sVs:\u005ckatalogas\u005cBrimnes\u005cBrimnes galvugalis 160\u005cBrimnes galvugalis 160 galas kaire b puse.dxf
p707
S'BRMHDB/BA-DE-7-5'
p708
sVs:\u005ckatalogas\u005cBrusali\u005cLova160\u005cBrusali 160 Galvugalio juosta.dxf
p709
S'BRUB160/BA-DE-5-1'
p710
sVs:\u005ckatalogas\u005cBrimnes\u005cBrimnes bed 140 su stalciais\u005cBrimnes bed 140 su stalciais kojugalio remas virsutinis.dxf
p711
S'BRMBWS140/BA-DE-2-1-7'
p712
sVs:\u005ckatalogas\u005cBrusali\u005cSpinta\u005cBrusali W3 Sonas K (2).dxf
p713
S'BRUW/BA-DE-3-1'
p714
sVs:\u005ckatalogas\u005cBrimnes\u005cBrimnes galvugalis KG GB\u005cBrimnes galvugalis KG GB remo pertvara.dxf
p715
S'BRMHDB/BA-DE-11-6'
p716
sVs:\u005ckatalogas\u005cBrusali\u005cKomoda 4st siaura\u005cBrusali C4N Galine koja K.dxf
p717
S'BRUC4N/BA-DE-5-2'
p718
sVs:\u005ckatalogas\u005cBrimnes\u005cBrimnes galvugalis KG GB\u005cBrimnes galvugalis KG GB fiksuota lentyna.dxf
p719
S'BRMHDB/BA-DE-5-7'
p720
sVs:\u005ckatalogas\u005cBrusali\u005cSpintele prie lovos\u005cBrusali BDST Virsutine juosta.dxf
p721
S'BRUBDST/BA-DE-8-3'
p722
sVs:\u005ckatalogas\u005cBrusali\u005cSpintele prie lovos\u005cBrusali BDST Sonas D (2).dxf
p723
S'BRUBDST/BA-DE-03-1'
p724
sVs:\u005ckatalogas\u005cSniglar\u005cSNIGLAR sonas D.dxf
p725
S'SNIGW/BA-DE-03-1'
p726
sVs:\u005ckatalogas\u005cBrimnes\u005cBrimnes bed KG GB su stalciais\u005cBrimnes bed KG GB su stalciais centrine pertvara.dxf
p727
S'BRMBKG/BA-DE-2-6-4'
p728
sVs:\u005ckatalogas\u005cBrimnes\u005cBrimnes 4 st siaura komoda\u005cBrimnes 4 st siaura komodos st remas su rankena.dxf
p729
S'BRMCN/BA-MA-10-2-6'
p730
sVs:\u005ckatalogas\u005cBrusali\u005cKomoda 4st plati\u005cBrusali C4W Stalciaus priekelis.dfx.dxf
p731
S'BRUCW/BA-MA-2-1-3'
p732
sVs:\u005ckatalogas\u005cBrusali\u005cKomoda 4st siaura\u005cBrusali C4N Stalciaus priekelis SURINKTAS.dxf
p733
S'BRUC4N/BA-MA-2-1-2'
p734
sVs:\u005ckatalogas\u005cBrusali\u005cLova180\u005cBrusali 180 Kojugalis.dxf
p735
S'BRUB180/BA-DE-2-1'
p736
sVs:\u005ckatalogas\u005cBrimnes\u005cBrimnes 4 st siaura komoda\u005cBrimnes 4 st siaura komodos virsutine juosta.dxf
p737
S'BRMCN/BA-DE-9-3'
p738
sVs:\u005ckatalogas\u005cBrimnes\u005cBrimnes 4 st komoda\u005cBrimnes 4 st komodos st remas kaire.dxf
p739
S'BRMC/BA-MA-10-3-2'
p740
sVs:\u005ckatalogas\u005cBrusali\u005cSpinta\u005cBrusali W3 Virsus.dxf
p741
S'BRUW/BA-DE-1-1'
p742
sVs:\u005ckatalogas\u005cSniglar\u005cSNIGLAR sonas K.dxf
p743
S'SNIGW/BA-DE-3-1'
p744
sVs:\u005ckatalogas\u005cBrusali\u005cLova KG GB\u005cBrusali KG GB Sonas.dxf
p745
S'BRUB/BA-DE-3-1'
p746
sVs:\u005ckatalogas\u005cBrimnes\u005cBrimnes DAY BED\u005cBrimnes DAY BED didelio st priekio sonas desine.dxf
p747
S'BRMBDAY/BA-MA-1-03-6'
p748
sVs:\u005ckatalogas\u005cBrimnes\u005cBrimnes 2 duru spinta\u005cBrimnes 2 duru spinta sonas kaire.dxf
p749
S'BRMW/BA-DE-3-3'
p750
sVs:\u005ckatalogas\u005cBrimnes\u005cBrimnes 4 st siaura komoda\u005cBrimnes 4 st siaura komodos sonas k.dxf
p751
S'BRMC4/BA-DE-3-3'
p752
sVs:\u005ckatalogas\u005cBrusali\u005cStalcius S2 DBL\u005cBrusali BOX DBL Did. Priekis.dxf
p753
S'BRUBBDBL/BA-DE-1-1'
p754
sVs:\u005ckatalogas\u005cBrusali\u005cSpinta\u005cBrusali W3 Plati lentyna (2).dxf
p755
S'BRUW/BA-DE-7-1'
p756
sVs:\u005ckatalogas\u005cBrimnes\u005cBrimnes bed 160 su stalciais\u005cBrimnes bed 160 su stalciais centrine pertvara b puse.dxf
p757
S'BRMB160/BA-DE-2-6-4'
p758
sVs:\u005ckatalogas\u005cBrimnes\u005cBrimnes bed 180 su stalciais\u005cBrimnes bed 180 su stalciais galine pertvara 2 kart.dxf
p759
S'2xBRMBWS/BA-DE-7-3'
p760
sVs:\u005ckatalogas\u005cBrusali\u005cLova S2 DBL\u005cBrusali S2 DBL Sonas.dxf
p761
S'BRUBDBL/BA-DE-3-1'
p762
sVs:\u005ckatalogas\u005cBrimnes\u005cBrimnes 3 st komoda\u005cBrimnes 3 st komodos sonas k.dxf
p763
S'BRMC3/BA-DE-3-4'
p764
sVs:\u005ckatalogas\u005cBrimnes\u005cBrimnes bed KG GB su stalciais\u005cBrimnes bed KG GB su stalciais sonas.dxf
p765
S'BRMBWS/BA-DE-3-2'
p766
sVs:\u005ckatalogas\u005cBrimnes\u005cBrimnes bed frame KG GB\u005cBrimnes bedframe KG GB kojugalio sonas K.dxf
p767
S'BRMBFR/BA-DE-2-3-3'
p768
sVs:\u005ckatalogas\u005cBrusali\u005cLova KG GB\u005cBrusali KG GB Kojugalis - koja K.dxf
p769
S'BRUB/BA-MA-2-3-1'
p770
sVs:\u005ckatalogas\u005cBrusali\u005cKomoda 3st\u005cBrusali C3W Sonas K (2).dxf
p771
S'BRUC3/BA-DE-3-1'
p772
sVs:\u005ckatalogas\u005cBrimnes\u005cBrimnes lentyna\u005cBrimnes lentynos priekelis.dxf
p773
S'BRMWLS/BA-DE-10-3'
p774
sVs:\u005ckatalogas\u005cBrimnes\u005cBrimnes 2 duru spinta\u005cBrimnes 2 duru spinta pertvara.dxf
p775
S'BRMW/BA-DE-6-5'
p776
sVs:\u005ckatalogas\u005cBrimnes\u005cBrimnes bed KG GB su stalciais\u005cBrimnes bed KG GB su stalciais galine pertvara.dxf
p777
S'BRMBWS/BA-DE-7-3'
p778
sVs:\u005ckatalogas\u005cBrimnes\u005cBrimnes bed DBL GB su stalciais\u005cBrimnes bed DBL GB su stalciais sonai.dxf
p779
S'BRMBWSDBL/BA-DE-3-1'
p780
sVs:\u005ckatalogas\u005cBrusali\u005cLova KG GB\u005cBrusali KG GB Galvugalis.dxf
p781
S'BRUBKG/BA-DE-1-1'
p782
sVs:\u005ckatalogas\u005cBrusali\u005cKomoda 3st\u005cBrusali C3W Stalciaus priekelis 2x kartotinumo.dxf
p783
S'BRUCW/BA-MA-2-1-3'
p784
sVs:\u005ckatalogas\u005cBrusali\u005cLova160\u005cBrusali 160 Galvugalis.dxf
p785
S'BRUB160/BA-DE-1-1'
p786
sVs:\u005ckatalogas\u005cBrimnes\u005cBrimnes bed KG GB su stalciais\u005cBrimnes bed KG GB su stalciais kojugalio sonas D, K.dxf
p787
S'BRMBWS/BA-DE-2-3-3'
p788
sVs:\u005ckatalogas\u005cBrusali\u005cLova S2 DBL\u005cBrusali S2 DBL Kojugalis.dxf
p789
S'BRUBDBL/BA-DE-2-1'
p790
sVs:\u005ckatalogas\u005cBrusali\u005cKomoda 4st siaura\u005cBrusali C4N Sonas D (2).dxf
p791
S'BRUC4N/BA-DE-03-1'
p792
sVs:\u005ckatalogas\u005cBrusali\u005cKomoda 4st plati\u005cBrusali C4W Stalciaus priekelio juosta.dxf
p793
S'BRUCW/BA-MA-2-2-1'
p794
sVs:\u005ckatalogas\u005cBrusali\u005cLova KG GB\u005cBrusali KG GB Galvugalis - koja K (A puse).dxf
p795
S'BRUB/BA-DE-4-1'
p796
sVs:\u005ckatalogas\u005cBrimnes\u005cBrimnes bed 140 su stalciais\u005cBrimnes bed 140 su stalciais centrine pertvara.dxf
p797
S'BRMB140/BA-DE-2-6-4'
p798
sVs:\u005ckatalogas\u005cBrusali\u005cSpinta\u005cBrusali W3 Siaura lentyna.dxf
p799
S'BRUW/BA-DE-8-1'
p800
sVs:\u005ckatalogas\u005cBrimnes\u005cBrimnes 3 st komoda\u005cBrimnes 3 st komodos st remas kaire.dxf
p801
S'BRMC/BA-MA-10-3-2'
p802
sVs:\u005ckatalogas\u005cBrusali\u005cLova S2 DBL\u005cBrusali S2 DBL Kojugalio juosta.dxf
p803
S'BRUBDBL/BA-MA-2-2-1'
p804
sVs:\u005ckatalogas\u005cBrusali\u005cKomoda 3st\u005cBrusali C3W Priekine apatine juosta.dxf
p805
S'BRUCW/BA-DE-6-3'
p806
sVs:\u005ckatalogas\u005cBrusali\u005cKomoda 4st siaura\u005cBrusali C4N Priekine juosta.dxf
p807
S'BRUC4N/BA-DE-6-3'
p808
sVs:\u005ckatalogas\u005cSniglar\u005cSNIGLAR Lentyna.dxf
p809
S'SNIGW/BUK-DE-5-1'
p810
sVs:\u005ckatalogas\u005cBrimnes\u005cBrimnes galvugalis 160\u005cBrimnes galvugalis 160 fiksuota lentyna.dxf
p811
S'BRMHDB/BA-DE-5-7'
p812
sVs:\u005ckatalogas\u005cBrimnes\u005cBrimnes galvugalis 160\u005cBrimnes galvugalis 160 remo pertvara.dxf
p813
S'BRMHDB/BA-DE-11-6'
p814
sVs:\u005ckatalogas\u005cBrusali\u005cSpinta\u005cBrusali W3 Duru remas su lankstais.dxf
p815
S'BRUW/BA-MA-10-1-1'
p816
sVs:\u005ckatalogas\u005cBrimnes\u005cBrimnes 3 duru spinta\u005cBrimnes 3 duru spinta virsus B.dxf
p817
S'BRMW3/BA-DE-1-1'
p818
sVs:\u005ckatalogas\u005cBrusali\u005cLova140\u005cBrusali 140 Sonas.dxf
p819
S'BRUB/BA-DE-3-1'
p820
sVs:\u005ckatalogas\u005cBrusali\u005cLova180\u005cBrusali 180 Galvugalis - koja K (B puse).dxf
p821
S'BRUB/BA-DE-4-1'
p822
sVs:\u005ckatalogas\u005cBrimnes\u005cBrimnes galvugalis DBL GB\u005cBrimnes galvugalis DBL GB koja desine.dxf
p823
S'BRMHDB/BA-DE-09-6'
p824
sVs:\u005ckatalogas\u005cBrimnes\u005cBrimnes DAY BED\u005cBrimnes DAY BED sonas desine.dxf
p825
S'BRMBDAY/BA-DE-03-3'
p826
sVs:\u005ckatalogas\u005cBrusali\u005cLova S2 DBL\u005cBrusali S2 DBL Galvugalio juosta.dxf
p827
S'BRUBDBL/BA-DE-5-1'
p828
sVs:\u005ckatalogas\u005cBrimnes\u005cBrimnes 4 st komoda\u005cBrimnes 4 st komodos sonas d.dxf
p829
S'BRMC4/BA-DE-03-3'
p830
sVs:\u005ckatalogas\u005cBrusali\u005cSpintele prie lovos\u005cBrusali BDST Sonas D.dxf
p831
S'BRUBDST/BA-DE-03-2'
p832
sVs:\u005ckatalogas\u005cBrimnes\u005cBrimnes galvugalis 140\u005cBrimnes galvugalis 140 galas desine a puse.dxf
p833
S'BRMHDB/BA-DE-07-5'
p834
sVs:\u005ckatalogas\u005cBrimnes\u005cBrimnes 2 duru spinta\u005cBrimnes 2 duru spinta vidinis virsus.dxf
p835
S'BRMW/BA-DE-4-4'
p836
sVs:\u005ckatalogas\u005cBrimnes\u005cBrimnes 3 duru spinta\u005cBrimnes 3 duru spinta pertvara desines puses.dxf
p837
S'BRMW/BA-DE-6-1'
p838
sVs:\u005ckatalogas\u005cBrimnes\u005cBrimnes galvugalis 140\u005cBrimnes galvugalis 140 virsutinis skydas 2 kart.dxf
p839
S'2xBRMHDB140/BA-DE-1-3'
p840
sVs:\u005ckatalogas\u005cBrimnes\u005cBrimnes galvugalis 180\u005cBrimnes galvugalis 180 fiksuota lentyna.dxf
p841
S'BRMHDB/BA-DE-5-7'
p842
sVs:\u005ckatalogas\u005cBrimnes\u005cBrimnes spintele prie lovos\u005cBrimnes spintele prie lovos st remas desine.dxf
p843
S'BRMC/BA-MA-10-03-2'
p844
sVs:\u005ckatalogas\u005cBrimnes\u005cBrimnes bed frame DBL GB\u005cBrimnes bedframe DBL GB kojugalio remas virsutinis.dxf
p845
S'BRMBFRDBL/BA-DE-2-1-7'
p846
sVs:\u005ckatalogas\u005cBrusali\u005cStalcius BOX\u005cBrusali BOX Priekis.dxf
p847
S'BRUBB/BA-DE-1-1'
p848
sVs:\u005ckatalogas\u005cBrimnes\u005cBrimnes bed DBL GB su stalciais\u005cBrimnes bed DBL GB su stalciais jungiamojo juosta.dxf
p849
S'BRMBWSDBL/BA-DE-12-2'
p850
sVs:\u005ckatalogas\u005cBrimnes\u005cBrimnes bed frame DBL GB\u005cBrimnes bedframe DBL GB kojugalio centrinis remas.dxf
p851
S'BRMBFR/BA-MA-2-4-3'
p852
sVs:\u005ckatalogas\u005cBrusali\u005cSpintele prie lovos\u005cBrusali BDST Galine koja D.dxf
p853
S'BRUBDST/BA-DE-07-1'
p854
sVs:\u005ckatalogas\u005cBrusali\u005cSpinta\u005cBrusali W3 Priekine koja D.dxf
p855
S'BRUW/BA-DE-04-1'
p856
sVs:\u005ckatalogas\u005cBrimnes\u005cBrimnes galvugalis 160\u005cBrimnes galvugalis 160 apatinis remas.dxf
p857
S'BRMHDB160/BA-DE-10-7'
p858
sVs:\u005ckatalogas\u005cBrimnes\u005cBrimnes galvugalis 180\u005cBrimnes galvugalis 180 galas desine a puse.dxf
p859
S'BRMHDB/BA-DE-07-5'
p860
sVs:\u005ckatalogas\u005cBrusali\u005cSpinta\u005cBrusali W3 Sonas K.dxf
p861
S'BRUW/BA-DE-3-1'
p862
sVs:\u005ckatalogas\u005cBrimnes\u005cBrimnes galvugalis DBL GB\u005cBrimnes galvugalis DBL GB galas desine b puse.dxf
p863
S'BRMHDB/BA-DE-07-5'
p864
sVs:\u005ckatalogas\u005cBrimnes\u005cBrimnes galvugalis DBL GB\u005cBrimnes galvugalis DBL GB virsutinis skydas.dxf
p865
S'BRMHDBDBL/BA-DE-1-3'
p866
sVs:\u005ckatalogas\u005cBrimnes\u005cBrimnes 3 st komoda\u005cBrimnes 3 st komodos st remas su grioveliu.dxf
p867
S'BRMCW/BA-MA-10-1-5'
p868
sVs:\u005ckatalogas\u005cBrusali\u005cKomoda 4st siaura\u005cBrusali C4N Sonas K.dxf
p869
S'BRUC4N/BA-DE-3-1'
p870
sVs:\u005ckatalogas\u005cBrusali\u005cKomoda 3st\u005cBrusali C3W Stalciaus priekelis.dfx.dxf
p871
S'BRUCW/BA-MA-2-1-3'
p872
sVs:\u005ckatalogas\u005cSniglar\u005cSNIGLAR Pertvara 1puse.dxf
p873
S'SNIGW/BA-DE-4-2'
p874
sVs:\u005ckatalogas\u005cBrimnes\u005cBrimnes bed KG GB su stalciais\u005cBrimnes bed KG GB su stalciais centrine pertvara b puse.dxf
p875
S'BRMBKG/BA-DE-2-6-4'
p876
sVs:\u005ckatalogas\u005cBrusali\u005cKomoda 3st\u005cBrusali C3W Sonas K.dxf
p877
S'BRUC3/BA-DE-3-2'
p878
sVs:\u005ckatalogas\u005cBrimnes\u005cBrimnes bed 180 su stalciais\u005cBrimnes bed 180 su stalciais galine pertvara.dxf
p879
S'BRMBWS/BA-DE-7-3'
p880
s.